Certificate:
    Data:
        Version: 3 (0x2)
        Serial Number: 17490585098396927364 (0xf2bb0a7a57b08584)
    Signature Algorithm: sha256WithRSAEncryption
        Issuer: C=DE, ST=NRW, O=Allgeier IT Solutions GmbH, OU=JULIA MailOffice, CN=Julia CA/emailAddress=support@iccsec.com
        Validity
            Not Before: Jun 16 08:48:27 2014 GMT
            Not After : Jun 13 08:48:27 2024 GMT
        Subject: C=DE, ST=NRW, O=Allgeier IT Solutions GmbH, OU=JULIA MailOffice, CN=Julia CA/emailAddress=support@iccsec.com
        Subject Public Key Info:
            Public Key Algorithm: rsaEncryption
                Public-Key: (4096 bit)
                Modulus:
                    00:c2:25:18:76:58:60:35:77:d3:a8:32:a0:65:e3:
                    ce:47:4b:d2:78:4f:e2:c7:a3:f1:7a:7c:2b:a1:61:
                    c5:dd:89:86:83:9d:2b:a6:44:29:0a:54:e3:ce:04:
                    cc:66:71:7b:1b:e5:8d:b6:38:af:a9:21:54:08:dd:
                    83:e3:f6:49:9e:a5:c1:93:04:7f:90:5d:b0:94:f6:
                    30:01:ac:c9:db:0c:8c:c2:70:6b:a8:fd:c2:cb:2e:
                    80:96:77:6a:5b:24:77:c3:62:f1:1b:10:37:9c:27:
                    39:c5:54:ee:c2:b7:17:5f:cc:74:2b:58:ad:3a:22:
                    cd:d9:28:59:98:be:90:ed:a8:40:8b:df:00:fc:5e:
                    ea:7b:f0:f6:a7:58:77:b4:4c:53:14:a3:65:e7:47:
                    74:36:e7:04:51:0c:88:e8:cc:0c:3e:1b:7f:29:1c:
                    8d:55:b3:95:2e:3d:6a:89:7f:8d:f1:de:ba:1a:41:
                    1e:13:ff:a1:43:1c:cb:4c:09:cd:11:d0:90:22:cd:
                    5f:f5:03:5d:93:25:f3:01:fa:2c:fc:db:71:5e:d7:
                    2f:d7:5d:3e:9e:78:21:1f:cb:5e:0f:f9:97:75:8c:
                    be:a0:77:fa:ff:24:01:30:d7:1c:8b:14:55:b6:a6:
                    e9:a6:dc:fb:b4:a1:7e:20:ba:29:c0:4b:89:48:0d:
                    be:87:57:94:fe:d4:5f:bf:04:5f:a4:d7:08:9e:03:
                    63:6f:f2:28:b7:74:3e:f3:53:bb:a2:7a:6a:dc:8b:
                    25:4b:07:cc:0c:1c:99:50:e5:15:32:fb:be:36:f5:
                    65:cb:0b:e3:c0:aa:df:d1:11:0e:46:cb:1f:54:59:
                    76:09:cf:59:57:d4:ac:88:5b:db:6b:39:a7:cb:92:
                    7a:ad:9b:58:04:96:4f:77:b9:2b:55:57:36:90:ff:
                    62:c1:0c:19:63:aa:cc:46:be:13:5a:0f:fd:9b:8f:
                    37:83:38:9b:16:62:0c:99:5c:ac:b6:0b:bc:8d:16:
                    58:c9:25:a3:8f:7d:68:3d:a4:42:6e:1e:1a:67:18:
                    c0:6c:dd:1c:70:08:33:b8:b6:23:cd:8e:e1:47:3c:
                    8a:47:2c:38:6b:57:5b:ab:3a:03:05:eb:36:4e:46:
                    5c:6e:bc:db:8c:67:88:f2:98:bd:9f:55:f6:43:c4:
                    8e:df:eb:ce:9a:ec:16:55:07:ed:85:5d:13:99:6d:
                    da:bb:cb:04:1a:b8:77:40:82:68:5e:2b:7b:a6:94:
                    2b:27:03:17:e7:f8:90:cf:3f:e3:f9:af:b3:6d:d8:
                    46:d7:45:85:0f:ba:5a:1c:f2:ef:ae:19:45:55:43:
                    9f:61:f8:76:00:87:fd:7e:26:34:18:99:50:ac:6f:
                    4a:d7:d5
                Exponent: 65537 (0x10001)
        X509v3 extensions:
            X509v3 Subject Key Identifier: 
                1A:D1:6C:DA:97:06:D5:95:A0:CD:A1:73:1E:48:9E:33:6C:B4:85:95
            X509v3 Authority Key Identifier: 
                keyid:1A:D1:6C:DA:97:06:D5:95:A0:CD:A1:73:1E:48:9E:33:6C:B4:85:95

            X509v3 Basic Constraints: 
                CA:TRUE
    Signature Algorithm: sha256WithRSAEncryption
         32:7e:fd:77:3c:5b:c3:7e:ef:3b:47:ca:2a:08:6d:55:32:2c:
         8d:30:1e:4d:6f:b7:1d:aa:87:27:d6:b7:3e:2d:2b:b0:9b:fc:
         6c:b0:da:8a:51:67:f5:5a:3d:4a:c3:10:4e:22:fe:52:6e:a4:
         74:0f:17:68:6f:d4:95:9a:51:7d:3b:e5:a8:9d:04:f5:2c:2f:
         28:e5:65:02:5a:0b:ca:8f:32:d9:33:64:b9:d3:0c:26:2e:86:
         3d:a7:c1:e6:c3:06:87:a9:3b:ce:3b:3e:c8:7b:2f:fa:aa:a5:
         32:5c:ab:38:e1:9b:f8:04:ae:56:94:68:ab:a3:3d:25:3d:65:
         d4:1e:3f:e1:69:5e:ec:cf:83:73:2a:25:1d:84:4e:af:bd:17:
         9f:ce:18:98:97:c3:20:39:b6:71:a8:2b:41:ff:ea:57:c5:84:
         76:8b:49:0b:87:5c:0b:9d:b6:2d:9e:0a:fc:48:da:c4:63:20:
         33:2d:22:4c:73:15:98:8b:7e:83:e4:73:23:95:e5:9b:fd:73:
         dd:f9:3c:e6:dd:59:47:69:eb:d8:ac:c6:39:39:93:9d:b8:07:
         74:a6:10:ba:ee:09:31:ff:bb:9b:4c:4b:4e:7d:66:14:fe:0c:
         6d:9b:e6:19:cb:ed:68:59:cd:e1:89:d5:ef:04:ad:aa:c7:dd:
         ea:02:6c:0f:ed:5a:c9:a4:60:b8:2c:6a:58:84:61:7f:a4:29:
         9f:d1:6f:b4:2e:7b:fe:d4:3c:72:5d:cb:71:aa:59:f9:c8:8e:
         c4:3f:99:18:f9:7b:97:9b:81:41:c6:00:3c:91:a7:19:4a:d4:
         38:97:aa:84:5f:0d:84:2c:66:7e:9c:33:54:a3:df:53:b2:6c:
         b5:c3:26:42:ad:9c:a1:d2:23:9a:9e:fc:3a:fd:8c:a6:b9:69:
         7d:81:ef:db:45:2b:c0:4e:5e:7d:95:e4:1f:3b:ab:03:3d:d2:
         3e:f7:68:87:ad:dd:b1:6e:c0:bb:fe:05:f9:8b:f3:2a:71:92:
         af:c5:9a:60:97:07:dc:6c:ee:4e:f9:c4:b0:67:3c:c4:e6:96:
         e3:0c:fa:42:eb:73:5c:d7:45:ef:50:ef:fb:81:f6:d7:bf:9f:
         e7:f1:ca:c3:16:86:e3:90:10:6d:ea:c6:6a:ef:70:06:7c:8b:
         2f:4d:ca:20:20:de:e1:43:22:2b:f1:56:32:b9:de:85:b2:64:
         d7:d5:93:87:e1:85:f9:a2:27:49:cd:3e:f0:6c:c3:a2:3e:fa:
         80:6e:0b:fc:0b:31:22:d9:55:11:89:48:4d:9a:98:57:8d:c2:
         15:8b:6f:13:ba:e4:b5:b0:a7:df:25:ab:df:3f:e1:f5:37:68:
         ba:9d:f7:85:b9:4e:cc:2f
-----BEGIN CERTIFICATE-----
MIIF9zCCA9+gAwIBAgIJAPK7CnpXsIWEMA0GCSqGSIb3DQEBCwUAMIGRMQswCQYD
VQQGEwJERTEMMAoGA1UECAwDTlJXMSMwIQYDVQQKDBpBbGxnZWllciBJVCBTb2x1
dGlvbnMgR21iSDEZMBcGA1UECwwQSlVMSUEgTWFpbE9mZmljZTERMA8GA1UEAwwI
SnVsaWEgQ0ExITAfBgkqhkiG9w0BCQEWEnN1cHBvcnRAaWNjc2VjLmNvbTAeFw0x
NDA2MTYwODQ4MjdaFw0yNDA2MTMwODQ4MjdaMIGRMQswCQYDVQQGEwJERTEMMAoG
A1UECAwDTlJXMSMwIQYDVQQKDBpBbGxnZWllciBJVCBTb2x1dGlvbnMgR21iSDEZ
MBcGA1UECwwQSlVMSUEgTWFpbE9mZmljZTERMA8GA1UEAwwISnVsaWEgQ0ExITAf
BgkqhkiG9w0BCQEWEnN1cHBvcnRAaWNjc2VjLmNvbTCCAiIwDQYJKoZIhvcNAQEB
BQADggIPADCCAgoCggIBAMIlGHZYYDV306gyoGXjzkdL0nhP4sej8Xp8K6Fhxd2J
hoOdK6ZEKQpU484EzGZxexvljbY4r6khVAjdg+P2SZ6lwZMEf5BdsJT2MAGsydsM
jMJwa6j9wssugJZ3alskd8Ni8RsQN5wnOcVU7sK3F1/MdCtYrToizdkoWZi+kO2o
QIvfAPxe6nvw9qdYd7RMUxSjZedHdDbnBFEMiOjMDD4bfykcjVWzlS49aol/jfHe
uhpBHhP/oUMcy0wJzRHQkCLNX/UDXZMl8wH6LPzbcV7XL9ddPp54IR/LXg/5l3WM
vqB3+v8kATDXHIsUVbam6abc+7ShfiC6KcBLiUgNvodXlP7UX78EX6TXCJ4DY2/y
KLd0PvNTu6J6atyLJUsHzAwcmVDlFTL7vjb1ZcsL48Cq39ERDkbLH1RZdgnPWVfU
rIhb22s5p8uSeq2bWASWT3e5K1VXNpD/YsEMGWOqzEa+E1oP/ZuPN4M4mxZiDJlc
rLYLvI0WWMklo499aD2kQm4eGmcYwGzdHHAIM7i2I82O4Uc8ikcsOGtXW6s6AwXr
Nk5GXG6824xniPKYvZ9V9kPEjt/rzprsFlUH7YVdE5lt2rvLBBq4d0CCaF4re6aU
KycDF+f4kM8/4/mvs23YRtdFhQ+6Whzy764ZRVVDn2H4dgCH/X4mNBiZUKxvStfV
AgMBAAGjUDBOMB0GA1UdDgQWBBQa0WzalwbVlaDNoXMeSJ4zbLSFlTAfBgNVHSME
GDAWgBQa0WzalwbVlaDNoXMeSJ4zbLSFlTAMBgNVHRMEBTADAQH/MA0GCSqGSIb3
DQEBCwUAA4ICAQAyfv13PFvDfu87R8oqCG1VMiyNMB5Nb7cdqocn1rc+LSuwm/xs
sNqKUWf1Wj1KwxBOIv5SbqR0Dxdob9SVmlF9O+WonQT1LC8o5WUCWgvKjzLZM2S5
0wwmLoY9p8HmwwaHqTvOOz7Iey/6qqUyXKs44Zv4BK5WlGiroz0lPWXUHj/haV7s
z4NzKiUdhE6vvRefzhiYl8MgObZxqCtB/+pXxYR2i0kLh1wLnbYtngr8SNrEYyAz
LSJMcxWYi36D5HMjleWb/XPd+Tzm3VlHaevYrMY5OZOduAd0phC67gkx/7ubTEtO
fWYU/gxtm+YZy+1oWc3hidXvBK2qx93qAmwP7VrJpGC4LGpYhGF/pCmf0W+0Lnv+
1DxyXctxqln5yI7EP5kY+XuXm4FBxgA8kacZStQ4l6qEXw2ELGZ+nDNUo99Tsmy1
wyZCrZyh0iOanvw6/YymuWl9ge/bRSvATl59leQfO6sDPdI+92iHrd2xbsC7/gX5
i/MqcZKvxZpglwfcbO5O+cSwZzzE5pbjDPpC63Nc10XvUO/7gfbXv5/n8crDFobj
kBBt6sZq73AGfIsvTcogIN7hQyIr8VYyud6FsmTX1ZOH4YX5oidJzT7wbMOiPvqA
bgv8CzEi2VURiUhNmphXjcIVi28TuuS1sKffJavfP+H1N2i6nfeFuU7MLw==
-----END CERTIFICATE-----
